target datalayout = "e-m:e-p270:32:32-p271:32:32-p272:64:64-i64:64-i128:128-f80:128-n8:16:32:64-S128"
target triple = "x86_64-unknown-linux-gnu"

%struct.UText = type { i32, i32, i32, i32, i64, i32, i32, i64, i32, i32, ptr, ptr, ptr, ptr, ptr, ptr, ptr, ptr, i64, i32, i32, i64, i32, i32 }
%struct.UTF8Buf = type { i32, i32, i32, i32, i32, i32, [36 x i16], [36 x i8], [102 x i8], i32 }

; Function Attrs: mustprogress nounwind uwtable
define internal noundef i64 @_ZL25utf8TextMapOffsetToNativePK5UText(ptr noundef %ut) #1 {
entry:
  %ut.addr = alloca ptr, align 8
  %u8b = alloca ptr, align 8
  %nativeOffset = alloca i32, align 4
  store ptr %ut, ptr %ut.addr, align 8
  %0 = load ptr, ptr %ut.addr, align 8
  %p = getelementptr inbounds %struct.UText, ptr %0, i32 0, i32 14
  %1 = load ptr, ptr %p, align 8
  store ptr %1, ptr %u8b, align 8
  %2 = load ptr, ptr %u8b, align 8
  %mapToNative = getelementptr inbounds %struct.UTF8Buf, ptr %2, i32 0, i32 7
  %3 = load ptr, ptr %ut.addr, align 8
  %chunkOffset = getelementptr inbounds %struct.UText, ptr %3, i32 0, i32 8
  %4 = load i32, ptr %chunkOffset, align 8
  %5 = load ptr, ptr %u8b, align 8
  %bufStartIdx = getelementptr inbounds %struct.UTF8Buf, ptr %5, i32 0, i32 2
  %6 = load i32, ptr %bufStartIdx, align 4
  %add = add nsw i32 %4, %6
  %idxprom = sext i32 %add to i64
  %arrayidx = getelementptr inbounds [36 x i8], ptr %mapToNative, i64 0, i64 %idxprom
  %7 = load i8, ptr %arrayidx, align 1
  %conv = zext i8 %7 to i32
  %8 = load ptr, ptr %u8b, align 8
  %toUCharsMapStart = getelementptr inbounds %struct.UTF8Buf, ptr %8, i32 0, i32 5
  %9 = load i32, ptr %toUCharsMapStart, align 4
  %add1 = add nsw i32 %conv, %9
  store i32 %add1, ptr %nativeOffset, align 4
  %10 = load i32, ptr %nativeOffset, align 4
  %conv2 = sext i32 %10 to i64
  ret i64 %conv2
}