; Function Attrs: mustprogress nofree norecurse nosync nounwind willreturn memory(read, inaccessiblemem: none) uwtable
define internal noundef i64 @_ZL25utf8TextMapOffsetToNativePK5UText(ptr nocapture noundef readonly %ut) #8 {
entry:
  %p = getelementptr inbounds i8, ptr %ut, i64 80
  %0 = load ptr, ptr %p, align 8
  %mapToNative = getelementptr inbounds i8, ptr %0, i64 96
  %chunkOffset = getelementptr inbounds i8, ptr %ut, i64 40
  %1 = load i32, ptr %chunkOffset, align 8
  %bufStartIdx = getelementptr inbounds i8, ptr %0, i64 8
  %2 = load i32, ptr %bufStartIdx, align 4
  %add = add nsw i32 %2, %1
  %idxprom = sext i32 %add to i64
  %arrayidx = getelementptr inbounds [36 x i8], ptr %mapToNative, i64 0, i64 %idxprom
  %3 = load i8, ptr %arrayidx, align 1
  %conv = zext i8 %3 to i32
  %toUCharsMapStart = getelementptr inbounds i8, ptr %0, i64 20
  %4 = load i32, ptr %toUCharsMapStart, align 4
  %add1 = add nsw i32 %4, %conv
  %conv2 = sext i32 %add1 to i64
  ret i64 %conv2
}